target datalayout = "e-m:e-p270:32:32-p271:32:32-p272:64:64-i64:64-i128:128-f80:128-n8:16:32:64-S128"
target triple = "x86_64-pc-linux-gnu"

%"struct.duckdb_libpgquery::yyguts_t" = type { ptr, ptr, ptr, i64, i64, ptr, i8, i64, i64, ptr, i32, i32, i32, i32, i32, ptr, i32, ptr, i32, i32, ptr, i32, i32, ptr, ptr }
%"struct.duckdb_libpgquery::yy_buffer_state" = type { ptr, ptr, ptr, i64, i64, i32, i32, i32, i32, i32, i32, i32 }

; Function Attrs: mustprogress nounwind uwtable
define internal void @_ZN17duckdb_libpgqueryL25core_yy_load_buffer_stateEPv(ptr noundef %0) #2 {
  %2 = alloca ptr, align 8
  %3 = alloca ptr, align 8
  store ptr %0, ptr %2, align 8, !tbaa !10
  call void @llvm.lifetime.start.p0(i64 8, ptr %3) #11
  %4 = load ptr, ptr %2, align 8, !tbaa !10
  store ptr %4, ptr %3, align 8, !tbaa !11
  %5 = load ptr, ptr %3, align 8, !tbaa !11
  %6 = getelementptr inbounds nuw %"struct.duckdb_libpgquery::yyguts_t", ptr %5, i32 0, i32 5
  %7 = load ptr, ptr %6, align 8, !tbaa !24
  %8 = load ptr, ptr %3, align 8, !tbaa !11
  %9 = getelementptr inbounds nuw %"struct.duckdb_libpgquery::yyguts_t", ptr %8, i32 0, i32 3
  %10 = load i64, ptr %9, align 8, !tbaa !25
  %11 = getelementptr inbounds nuw ptr, ptr %7, i64 %10
  %12 = load ptr, ptr %11, align 8, !tbaa !26
  %13 = getelementptr inbounds nuw %"struct.duckdb_libpgquery::yy_buffer_state", ptr %12, i32 0, i32 4
  %14 = load i64, ptr %13, align 8, !tbaa !68
  %15 = load ptr, ptr %3, align 8, !tbaa !11
  %16 = getelementptr inbounds nuw %"struct.duckdb_libpgquery::yyguts_t", ptr %15, i32 0, i32 7
  store i64 %14, ptr %16, align 8, !tbaa !69
  %17 = load ptr, ptr %3, align 8, !tbaa !11
  %18 = getelementptr inbounds nuw %"struct.duckdb_libpgquery::yyguts_t", ptr %17, i32 0, i32 5
  %19 = load ptr, ptr %18, align 8, !tbaa !24
  %20 = load ptr, ptr %3, align 8, !tbaa !11
  %21 = getelementptr inbounds nuw %"struct.duckdb_libpgquery::yyguts_t", ptr %20, i32 0, i32 3
  %22 = load i64, ptr %21, align 8, !tbaa !25
  %23 = getelementptr inbounds nuw ptr, ptr %19, i64 %22
  %24 = load ptr, ptr %23, align 8, !tbaa !26
  %25 = getelementptr inbounds nuw %"struct.duckdb_libpgquery::yy_buffer_state", ptr %24, i32 0, i32 2
  %26 = load ptr, ptr %25, align 8, !tbaa !79
  %27 = load ptr, ptr %3, align 8, !tbaa !11
  %28 = getelementptr inbounds nuw %"struct.duckdb_libpgquery::yyguts_t", ptr %27, i32 0, i32 9
  store ptr %26, ptr %28, align 8, !tbaa !29
  %29 = load ptr, ptr %3, align 8, !tbaa !11
  %30 = getelementptr inbounds nuw %"struct.duckdb_libpgquery::yyguts_t", ptr %29, i32 0, i32 20
  store ptr %26, ptr %30, align 8, !tbaa !41
  %31 = load ptr, ptr %3, align 8, !tbaa !11
  %32 = getelementptr inbounds nuw %"struct.duckdb_libpgquery::yyguts_t", ptr %31, i32 0, i32 5
  %33 = load ptr, ptr %32, align 8, !tbaa !24
  %34 = load ptr, ptr %3, align 8, !tbaa !11
  %35 = getelementptr inbounds nuw %"struct.duckdb_libpgquery::yyguts_t", ptr %34, i32 0, i32 3
  %36 = load i64, ptr %35, align 8, !tbaa !25
  %37 = getelementptr inbounds nuw ptr, ptr %33, i64 %36
  %38 = load ptr, ptr %37, align 8, !tbaa !26
  %39 = getelementptr inbounds nuw %"struct.duckdb_libpgquery::yy_buffer_state", ptr %38, i32 0, i32 0
  %40 = load ptr, ptr %39, align 8, !tbaa !70
  %41 = load ptr, ptr %3, align 8, !tbaa !11
  %42 = getelementptr inbounds nuw %"struct.duckdb_libpgquery::yyguts_t", ptr %41, i32 0, i32 1
  store ptr %40, ptr %42, align 8, !tbaa !28
  %43 = load ptr, ptr %3, align 8, !tbaa !11
  %44 = getelementptr inbounds nuw %"struct.duckdb_libpgquery::yyguts_t", ptr %43, i32 0, i32 9
  %45 = load ptr, ptr %44, align 8, !tbaa !29
  %46 = load i8, ptr %45, align 1, !tbaa !32
  %47 = load ptr, ptr %3, align 8, !tbaa !11
  %48 = getelementptr inbounds nuw %"struct.duckdb_libpgquery::yyguts_t", ptr %47, i32 0, i32 6
  store i8 %46, ptr %48, align 8, !tbaa !31
  call void @llvm.lifetime.end.p0(i64 8, ptr %3) #11
  ret void
}

; Function Attrs: mustprogress nounwind uwtable
define internal noundef i32 @_ZN17duckdb_libpgqueryL15yy_init_globalsEPv(ptr noundef %0) #2 {
  %2 = alloca ptr, align 8
  %3 = alloca ptr, align 8
  store ptr %0, ptr %2, align 8, !tbaa !10
  call void @llvm.lifetime.start.p0(i64 8, ptr %3) #11
  %4 = load ptr, ptr %2, align 8, !tbaa !10
  store ptr %4, ptr %3, align 8, !tbaa !11
  %5 = load ptr, ptr %3, align 8, !tbaa !11
  %6 = getelementptr inbounds nuw %"struct.duckdb_libpgquery::yyguts_t", ptr %5, i32 0, i32 5
  store ptr null, ptr %6, align 8, !tbaa !24
  %7 = load ptr, ptr %3, align 8, !tbaa !11
  %8 = getelementptr inbounds nuw %"struct.duckdb_libpgquery::yyguts_t", ptr %7, i32 0, i32 3
  store i64 0, ptr %8, align 8, !tbaa !25
  %9 = load ptr, ptr %3, align 8, !tbaa !11
  %10 = getelementptr inbounds nuw %"struct.duckdb_libpgquery::yyguts_t", ptr %9, i32 0, i32 4
  store i64 0, ptr %10, align 8, !tbaa !75
  %11 = load ptr, ptr %3, align 8, !tbaa !11
  %12 = getelementptr inbounds nuw %"struct.duckdb_libpgquery::yyguts_t", ptr %11, i32 0, i32 9
  store ptr null, ptr %12, align 8, !tbaa !29
  %13 = load ptr, ptr %3, align 8, !tbaa !11
  %14 = getelementptr inbounds nuw %"struct.duckdb_libpgquery::yyguts_t", ptr %13, i32 0, i32 10
  store i32 0, ptr %14, align 8, !tbaa !22
  %15 = load ptr, ptr %3, align 8, !tbaa !11
  %16 = getelementptr inbounds nuw %"struct.duckdb_libpgquery::yyguts_t", ptr %15, i32 0, i32 11
  store i32 0, ptr %16, align 4, !tbaa !23
  %17 = load ptr, ptr %3, align 8, !tbaa !11
  %18 = getelementptr inbounds nuw %"struct.duckdb_libpgquery::yyguts_t", ptr %17, i32 0, i32 13
  store i32 0, ptr %18, align 4, !tbaa !102
  %19 = load ptr, ptr %3, align 8, !tbaa !11
  %20 = getelementptr inbounds nuw %"struct.duckdb_libpgquery::yyguts_t", ptr %19, i32 0, i32 14
  store i32 0, ptr %20, align 8, !tbaa !103
  %21 = load ptr, ptr %3, align 8, !tbaa !11
  %22 = getelementptr inbounds nuw %"struct.duckdb_libpgquery::yyguts_t", ptr %21, i32 0, i32 15
  store ptr null, ptr %22, align 8, !tbaa !104
  %23 = load ptr, ptr %3, align 8, !tbaa !11
  %24 = getelementptr inbounds nuw %"struct.duckdb_libpgquery::yyguts_t", ptr %23, i32 0, i32 1
  store ptr null, ptr %24, align 8, !tbaa !28
  %25 = load ptr, ptr %3, align 8, !tbaa !11
  %26 = getelementptr inbounds nuw %"struct.duckdb_libpgquery::yyguts_t", ptr %25, i32 0, i32 2
  store ptr null, ptr %26, align 8, !tbaa !99
  call void @llvm.lifetime.end.p0(i64 8, ptr %3) #11
  ret i32 0
}

; Function Attrs: mustprogress uwtable
define hidden void @_ZN17duckdb_libpgquery11core_yyfreeEPvS0_(ptr noundef %0, ptr noundef %1) #0 {
  %3 = alloca ptr, align 8
  %4 = alloca ptr, align 8
  store ptr %0, ptr %3, align 8, !tbaa !10
  store ptr %1, ptr %4, align 8, !tbaa !10
  %5 = load ptr, ptr %3, align 8, !tbaa !10
  %6 = icmp ne ptr %5, null
  br i1 %6, label %7, label %9

7:                                                ; preds = %2
  %8 = load ptr, ptr %3, align 8, !tbaa !10
  call void @_ZN17duckdb_libpgquery5pfreeEPv(ptr noundef %8)
  br label %9

9:                                                ; preds = %7, %2
  ret void
}

; Function Attrs: mustprogress uwtable
define hidden void @_ZN17duckdb_libpgquery23core_yypop_buffer_stateEPv(ptr noundef %0) #0 {
  %2 = alloca ptr, align 8
  %3 = alloca ptr, align 8
  %4 = alloca i32, align 4
  store ptr %0, ptr %2, align 8, !tbaa !10
  call void @llvm.lifetime.start.p0(i64 8, ptr %3) #11
  %5 = load ptr, ptr %2, align 8, !tbaa !10
  store ptr %5, ptr %3, align 8, !tbaa !11
  %6 = load ptr, ptr %3, align 8, !tbaa !11
  %7 = getelementptr inbounds nuw %"struct.duckdb_libpgquery::yyguts_t", ptr %6, i32 0, i32 5
  %8 = load ptr, ptr %7, align 8, !tbaa !24
  %9 = icmp ne ptr %8, null
  br i1 %9, label %10, label %19

10:                                               ; preds = %1
  %11 = load ptr, ptr %3, align 8, !tbaa !11
  %12 = getelementptr inbounds nuw %"struct.duckdb_libpgquery::yyguts_t", ptr %11, i32 0, i32 5
  %13 = load ptr, ptr %12, align 8, !tbaa !24
  %14 = load ptr, ptr %3, align 8, !tbaa !11
  %15 = getelementptr inbounds nuw %"struct.duckdb_libpgquery::yyguts_t", ptr %14, i32 0, i32 3
  %16 = load i64, ptr %15, align 8, !tbaa !25
  %17 = getelementptr inbounds nuw ptr, ptr %13, i64 %16
  %18 = load ptr, ptr %17, align 8, !tbaa !26
  br label %20

19:                                               ; preds = %1
  br label %20

20:                                               ; preds = %19, %10
  %21 = phi ptr [ %18, %10 ], [ null, %19 ]
  %22 = icmp ne ptr %21, null
  br i1 %22, label %24, label %23

23:                                               ; preds = %20
  store i32 1, ptr %4, align 4
  br label %81

24:                                               ; preds = %20
  %25 = load ptr, ptr %3, align 8, !tbaa !11
  %26 = getelementptr inbounds nuw %"struct.duckdb_libpgquery::yyguts_t", ptr %25, i32 0, i32 5
  %27 = load ptr, ptr %26, align 8, !tbaa !24
  %28 = icmp ne ptr %27, null
  br i1 %28, label %29, label %38

29:                                               ; preds = %24
  %30 = load ptr, ptr %3, align 8, !tbaa !11
  %31 = getelementptr inbounds nuw %"struct.duckdb_libpgquery::yyguts_t", ptr %30, i32 0, i32 5
  %32 = load ptr, ptr %31, align 8, !tbaa !24
  %33 = load ptr, ptr %3, align 8, !tbaa !11
  %34 = getelementptr inbounds nuw %"struct.duckdb_libpgquery::yyguts_t", ptr %33, i32 0, i32 3
  %35 = load i64, ptr %34, align 8, !tbaa !25
  %36 = getelementptr inbounds nuw ptr, ptr %32, i64 %35
  %37 = load ptr, ptr %36, align 8, !tbaa !26
  br label %39

38:                                               ; preds = %24
  br label %39

39:                                               ; preds = %38, %29
  %40 = phi ptr [ %37, %29 ], [ null, %38 ]
  %41 = load ptr, ptr %2, align 8, !tbaa !10
  call void @_ZN17duckdb_libpgquery21core_yy_delete_bufferEPNS_15yy_buffer_stateEPv(ptr noundef %40, ptr noundef %41)
  %42 = load ptr, ptr %3, align 8, !tbaa !11
  %43 = getelementptr inbounds nuw %"struct.duckdb_libpgquery::yyguts_t", ptr %42, i32 0, i32 5
  %44 = load ptr, ptr %43, align 8, !tbaa !24
  %45 = load ptr, ptr %3, align 8, !tbaa !11
  %46 = getelementptr inbounds nuw %"struct.duckdb_libpgquery::yyguts_t", ptr %45, i32 0, i32 3
  %47 = load i64, ptr %46, align 8, !tbaa !25
  %48 = getelementptr inbounds nuw ptr, ptr %44, i64 %47
  store ptr null, ptr %48, align 8, !tbaa !26
  %49 = load ptr, ptr %3, align 8, !tbaa !11
  %50 = getelementptr inbounds nuw %"struct.duckdb_libpgquery::yyguts_t", ptr %49, i32 0, i32 3
  %51 = load i64, ptr %50, align 8, !tbaa !25
  %52 = icmp ugt i64 %51, 0
  br i1 %52, label %53, label %58

53:                                               ; preds = %39
  %54 = load ptr, ptr %3, align 8, !tbaa !11
  %55 = getelementptr inbounds nuw %"struct.duckdb_libpgquery::yyguts_t", ptr %54, i32 0, i32 3
  %56 = load i64, ptr %55, align 8, !tbaa !25
  %57 = add i64 %56, -1
  store i64 %57, ptr %55, align 8, !tbaa !25
  br label %58

58:                                               ; preds = %53, %39
  %59 = load ptr, ptr %3, align 8, !tbaa !11
  %60 = getelementptr inbounds nuw %"struct.duckdb_libpgquery::yyguts_t", ptr %59, i32 0, i32 5
  %61 = load ptr, ptr %60, align 8, !tbaa !24
  %62 = icmp ne ptr %61, null
  br i1 %62, label %63, label %72

63:                                               ; preds = %58
  %64 = load ptr, ptr %3, align 8, !tbaa !11
  %65 = getelementptr inbounds nuw %"struct.duckdb_libpgquery::yyguts_t", ptr %64, i32 0, i32 5
  %66 = load ptr, ptr %65, align 8, !tbaa !24
  %67 = load ptr, ptr %3, align 8, !tbaa !11
  %68 = getelementptr inbounds nuw %"struct.duckdb_libpgquery::yyguts_t", ptr %67, i32 0, i32 3
  %69 = load i64, ptr %68, align 8, !tbaa !25
  %70 = getelementptr inbounds nuw ptr, ptr %66, i64 %69
  %71 = load ptr, ptr %70, align 8, !tbaa !26
  br label %73

72:                                               ; preds = %58
  br label %73

73:                                               ; preds = %72, %63
  %74 = phi ptr [ %71, %63 ], [ null, %72 ]
  %75 = icmp ne ptr %74, null
  br i1 %75, label %76, label %80

76:                                               ; preds = %73
  %77 = load ptr, ptr %2, align 8, !tbaa !10
  call void @_ZN17duckdb_libpgqueryL25core_yy_load_buffer_stateEPv(ptr noundef %77)
  %78 = load ptr, ptr %3, align 8, !tbaa !11
  %79 = getelementptr inbounds nuw %"struct.duckdb_libpgquery::yyguts_t", ptr %78, i32 0, i32 12
  store i32 1, ptr %79, align 8, !tbaa !72
  br label %80

80:                                               ; preds = %76, %73
  store i32 0, ptr %4, align 4
  br label %81

81:                                               ; preds = %80, %23
  call void @llvm.lifetime.end.p0(i64 8, ptr %3) #11
  %82 = load i32, ptr %4, align 4
  switch i32 %82, label %84 [
    i32 0, label %83
    i32 1, label %83
  ]

83:                                               ; preds = %81, %81
  ret void

84:                                               ; preds = %81
  unreachable
}

; Function Attrs: mustprogress uwtable
define hidden void @_ZN17duckdb_libpgquery21core_yy_delete_bufferEPNS_15yy_buffer_stateEPv(ptr noundef %0, ptr noundef %1) #0 {
  %3 = alloca ptr, align 8
  %4 = alloca ptr, align 8
  %5 = alloca ptr, align 8
  %6 = alloca i32, align 4
  store ptr %0, ptr %3, align 8, !tbaa !26
  store ptr %1, ptr %4, align 8, !tbaa !10
  call void @llvm.lifetime.start.p0(i64 8, ptr %5) #11
  %7 = load ptr, ptr %4, align 8, !tbaa !10
  store ptr %7, ptr %5, align 8, !tbaa !11
  %8 = load ptr, ptr %3, align 8, !tbaa !26
  %9 = icmp ne ptr %8, null
  br i1 %9, label %11, label %10

10:                                               ; preds = %2
  store i32 1, ptr %6, align 4
  br label %51

11:                                               ; preds = %2
  %12 = load ptr, ptr %3, align 8, !tbaa !26
  %13 = load ptr, ptr %5, align 8, !tbaa !11
  %14 = getelementptr inbounds nuw %"struct.duckdb_libpgquery::yyguts_t", ptr %13, i32 0, i32 5
  %15 = load ptr, ptr %14, align 8, !tbaa !24
  %16 = icmp ne ptr %15, null
  br i1 %16, label %17, label %26

17:                                               ; preds = %11
  %18 = load ptr, ptr %5, align 8, !tbaa !11
  %19 = getelementptr inbounds nuw %"struct.duckdb_libpgquery::yyguts_t", ptr %18, i32 0, i32 5
  %20 = load ptr, ptr %19, align 8, !tbaa !24
  %21 = load ptr, ptr %5, align 8, !tbaa !11
  %22 = getelementptr inbounds nuw %"struct.duckdb_libpgquery::yyguts_t", ptr %21, i32 0, i32 3
  %23 = load i64, ptr %22, align 8, !tbaa !25
  %24 = getelementptr inbounds nuw ptr, ptr %20, i64 %23
  %25 = load ptr, ptr %24, align 8, !tbaa !26
  br label %27

26:                                               ; preds = %11
  br label %27

27:                                               ; preds = %26, %17
  %28 = phi ptr [ %25, %17 ], [ null, %26 ]
  %29 = icmp eq ptr %12, %28
  br i1 %29, label %30, label %38

30:                                               ; preds = %27
  %31 = load ptr, ptr %5, align 8, !tbaa !11
  %32 = getelementptr inbounds nuw %"struct.duckdb_libpgquery::yyguts_t", ptr %31, i32 0, i32 5
  %33 = load ptr, ptr %32, align 8, !tbaa !24
  %34 = load ptr, ptr %5, align 8, !tbaa !11
  %35 = getelementptr inbounds nuw %"struct.duckdb_libpgquery::yyguts_t", ptr %34, i32 0, i32 3
  %36 = load i64, ptr %35, align 8, !tbaa !25
  %37 = getelementptr inbounds nuw ptr, ptr %33, i64 %36
  store ptr null, ptr %37, align 8, !tbaa !26
  br label %38

38:                                               ; preds = %30, %27
  %39 = load ptr, ptr %3, align 8, !tbaa !26
  %40 = getelementptr inbounds nuw %"struct.duckdb_libpgquery::yy_buffer_state", ptr %39, i32 0, i32 5
  %41 = load i32, ptr %40, align 8, !tbaa !78
  %42 = icmp ne i32 %41, 0
  br i1 %42, label %43, label %48

43:                                               ; preds = %38
  %44 = load ptr, ptr %3, align 8, !tbaa !26
  %45 = getelementptr inbounds nuw %"struct.duckdb_libpgquery::yy_buffer_state", ptr %44, i32 0, i32 1
  %46 = load ptr, ptr %45, align 8, !tbaa !71
  %47 = load ptr, ptr %4, align 8, !tbaa !10
  call void @_ZN17duckdb_libpgquery11core_yyfreeEPvS0_(ptr noundef %46, ptr noundef %47)
  br label %48

48:                                               ; preds = %43, %38
  %49 = load ptr, ptr %3, align 8, !tbaa !26
  %50 = load ptr, ptr %4, align 8, !tbaa !10
  call void @_ZN17duckdb_libpgquery11core_yyfreeEPvS0_(ptr noundef %49, ptr noundef %50)
  store i32 0, ptr %6, align 4
  br label %51

51:                                               ; preds = %48, %10
  call void @llvm.lifetime.end.p0(i64 8, ptr %5) #11
  %52 = load i32, ptr %6, align 4
  switch i32 %52, label %54 [
    i32 0, label %53
    i32 1, label %53
  ]

53:                                               ; preds = %51, %51
  ret void

54:                                               ; preds = %51
  unreachable
}

; Function Attrs: mustprogress uwtable
define hidden noundef i32 @_ZN17duckdb_libpgquery18core_yylex_destroyEPv(ptr noundef %0) #0 {
  %2 = alloca ptr, align 8
  %3 = alloca ptr, align 8
  store ptr %0, ptr %2, align 8, !tbaa !10
  call void @llvm.lifetime.start.p0(i64 8, ptr %3) #11
  %4 = load ptr, ptr %2, align 8, !tbaa !10
  store ptr %4, ptr %3, align 8, !tbaa !11
  br label %5

5:                                                ; preds = %38, %1
  %6 = load ptr, ptr %3, align 8, !tbaa !11
  %7 = getelementptr inbounds nuw %"struct.duckdb_libpgquery::yyguts_t", ptr %6, i32 0, i32 5
  %8 = load ptr, ptr %7, align 8, !tbaa !24
  %9 = icmp ne ptr %8, null
  br i1 %9, label %10, label %19

10:                                               ; preds = %5
  %11 = load ptr, ptr %3, align 8, !tbaa !11
  %12 = getelementptr inbounds nuw %"struct.duckdb_libpgquery::yyguts_t", ptr %11, i32 0, i32 5
  %13 = load ptr, ptr %12, align 8, !tbaa !24
  %14 = load ptr, ptr %3, align 8, !tbaa !11
  %15 = getelementptr inbounds nuw %"struct.duckdb_libpgquery::yyguts_t", ptr %14, i32 0, i32 3
  %16 = load i64, ptr %15, align 8, !tbaa !25
  %17 = getelementptr inbounds nuw ptr, ptr %13, i64 %16
  %18 = load ptr, ptr %17, align 8, !tbaa !26
  br label %20

19:                                               ; preds = %5
  br label %20

20:                                               ; preds = %19, %10
  %21 = phi ptr [ %18, %10 ], [ null, %19 ]
  %22 = icmp ne ptr %21, null
  br i1 %22, label %23, label %49

23:                                               ; preds = %20
  %24 = load ptr, ptr %3, align 8, !tbaa !11
  %25 = getelementptr inbounds nuw %"struct.duckdb_libpgquery::yyguts_t", ptr %24, i32 0, i32 5
  %26 = load ptr, ptr %25, align 8, !tbaa !24
  %27 = icmp ne ptr %26, null
  br i1 %27, label %28, label %37

28:                                               ; preds = %23
  %29 = load ptr, ptr %3, align 8, !tbaa !11
  %30 = getelementptr inbounds nuw %"struct.duckdb_libpgquery::yyguts_t", ptr %29, i32 0, i32 5
  %31 = load ptr, ptr %30, align 8, !tbaa !24
  %32 = load ptr, ptr %3, align 8, !tbaa !11
  %33 = getelementptr inbounds nuw %"struct.duckdb_libpgquery::yyguts_t", ptr %32, i32 0, i32 3
  %34 = load i64, ptr %33, align 8, !tbaa !25
  %35 = getelementptr inbounds nuw ptr, ptr %31, i64 %34
  %36 = load ptr, ptr %35, align 8, !tbaa !26
  br label %38

37:                                               ; preds = %23
  br label %38

38:                                               ; preds = %37, %28
  %39 = phi ptr [ %36, %28 ], [ null, %37 ]
  %40 = load ptr, ptr %2, align 8, !tbaa !10
  call void @_ZN17duckdb_libpgquery21core_yy_delete_bufferEPNS_15yy_buffer_stateEPv(ptr noundef %39, ptr noundef %40)
  %41 = load ptr, ptr %3, align 8, !tbaa !11
  %42 = getelementptr inbounds nuw %"struct.duckdb_libpgquery::yyguts_t", ptr %41, i32 0, i32 5
  %43 = load ptr, ptr %42, align 8, !tbaa !24
  %44 = load ptr, ptr %3, align 8, !tbaa !11
  %45 = getelementptr inbounds nuw %"struct.duckdb_libpgquery::yyguts_t", ptr %44, i32 0, i32 3
  %46 = load i64, ptr %45, align 8, !tbaa !25
  %47 = getelementptr inbounds nuw ptr, ptr %43, i64 %46
  store ptr null, ptr %47, align 8, !tbaa !26
  %48 = load ptr, ptr %2, align 8, !tbaa !10
  call void @_ZN17duckdb_libpgquery23core_yypop_buffer_stateEPv(ptr noundef %48)
  br label %5, !llvm.loop !105

49:                                               ; preds = %20
  %50 = load ptr, ptr %3, align 8, !tbaa !11
  %51 = getelementptr inbounds nuw %"struct.duckdb_libpgquery::yyguts_t", ptr %50, i32 0, i32 5
  %52 = load ptr, ptr %51, align 8, !tbaa !24
  %53 = load ptr, ptr %2, align 8, !tbaa !10
  call void @_ZN17duckdb_libpgquery11core_yyfreeEPvS0_(ptr noundef %52, ptr noundef %53)
  %54 = load ptr, ptr %3, align 8, !tbaa !11
  %55 = getelementptr inbounds nuw %"struct.duckdb_libpgquery::yyguts_t", ptr %54, i32 0, i32 5
  store ptr null, ptr %55, align 8, !tbaa !24
  %56 = load ptr, ptr %3, align 8, !tbaa !11
  %57 = getelementptr inbounds nuw %"struct.duckdb_libpgquery::yyguts_t", ptr %56, i32 0, i32 15
  %58 = load ptr, ptr %57, align 8, !tbaa !104
  %59 = load ptr, ptr %2, align 8, !tbaa !10
  call void @_ZN17duckdb_libpgquery11core_yyfreeEPvS0_(ptr noundef %58, ptr noundef %59)
  %60 = load ptr, ptr %3, align 8, !tbaa !11
  %61 = getelementptr inbounds nuw %"struct.duckdb_libpgquery::yyguts_t", ptr %60, i32 0, i32 15
  store ptr null, ptr %61, align 8, !tbaa !104
  %62 = load ptr, ptr %2, align 8, !tbaa !10
  %63 = call noundef i32 @_ZN17duckdb_libpgqueryL15yy_init_globalsEPv(ptr noundef %62)
  %64 = load ptr, ptr %2, align 8, !tbaa !10
  %65 = load ptr, ptr %2, align 8, !tbaa !10
  call void @_ZN17duckdb_libpgquery11core_yyfreeEPvS0_(ptr noundef %64, ptr noundef %65)
  store ptr null, ptr %2, align 8, !tbaa !10
  call void @llvm.lifetime.end.p0(i64 8, ptr %3) #11
  ret i32 0
}