; Function Attrs: mustprogress uwtable
define hidden noundef i32 @_ZN17duckdb_libpgquery18core_yylex_destroyEPv(ptr noundef %0) local_unnamed_addr #0 {
  %2 = getelementptr inbounds nuw i8, ptr %0, i64 40
  %3 = load ptr, ptr %2, align 8, !tbaa !19
  %.not32 = icmp eq ptr %3, null
  br i1 %.not32, label %_ZN17duckdb_libpgquery11core_yyfreeEPvS0_.exit, label %.lr.ph

.lr.ph:                                           ; preds = %1
  %4 = getelementptr inbounds nuw i8, ptr %0, i64 24
  %.pre = load i64, ptr %4, align 8, !tbaa !20
  %.phi.trans.insert = getelementptr inbounds nuw ptr, ptr %3, i64 %.pre
  %.pre34 = load ptr, ptr %.phi.trans.insert, align 8, !tbaa !21
  %5 = icmp eq ptr %.pre34, null
  br i1 %5, label %.critedge, label %.thread.i

.thread.i:                                        ; preds = %.lr.ph
  %6 = getelementptr inbounds nuw ptr, ptr %3, i64 %.pre
  store ptr null, ptr %6, align 8, !tbaa !21
  %7 = getelementptr inbounds nuw i8, ptr %.pre34, i64 40
  %8 = load i32, ptr %7, align 8, !tbaa !78
  %.not15.i = icmp eq i32 %8, 0
  br i1 %.not15.i, label %_ZN17duckdb_libpgquery23core_yypop_buffer_stateEPv.exit, label %9

9:                                                ; preds = %.thread.i
  %10 = getelementptr inbounds nuw i8, ptr %.pre34, i64 8
  %11 = load ptr, ptr %10, align 8, !tbaa !71
  %.not.i.i = icmp eq ptr %11, null
  br i1 %.not.i.i, label %_ZN17duckdb_libpgquery23core_yypop_buffer_stateEPv.exit, label %12

12:                                               ; preds = %9
  tail call void @_ZN17duckdb_libpgquery5pfreeEPv(ptr noundef nonnull %11)
  br label %_ZN17duckdb_libpgquery23core_yypop_buffer_stateEPv.exit

_ZN17duckdb_libpgquery23core_yypop_buffer_stateEPv.exit: ; preds = %.thread.i, %9, %12
  tail call void @_ZN17duckdb_libpgquery5pfreeEPv(ptr noundef nonnull %.pre34)
  %13 = load ptr, ptr %2, align 8, !tbaa !19
  %14 = load i64, ptr %4, align 8, !tbaa !20
  %15 = getelementptr inbounds nuw ptr, ptr %13, i64 %14
  store ptr null, ptr %15, align 8, !tbaa !21
  br label %.critedge

.critedge:                                        ; preds = %_ZN17duckdb_libpgquery23core_yypop_buffer_stateEPv.exit, %.lr.ph
  %.lcssa = phi ptr [ %13, %_ZN17duckdb_libpgquery23core_yypop_buffer_stateEPv.exit ], [ %3, %.lr.ph ]
  tail call void @_ZN17duckdb_libpgquery5pfreeEPv(ptr noundef nonnull %.lcssa)
  br label %_ZN17duckdb_libpgquery11core_yyfreeEPvS0_.exit

_ZN17duckdb_libpgquery11core_yyfreeEPvS0_.exit:   ; preds = %1, %.critedge
  store ptr null, ptr %2, align 8, !tbaa !19
  %16 = getelementptr inbounds nuw i8, ptr %0, i64 104
  %17 = load ptr, ptr %16, align 8, !tbaa !97
  %.not.i25 = icmp eq ptr %17, null
  br i1 %.not.i25, label %_ZN17duckdb_libpgquery11core_yyfreeEPvS0_.exit28, label %18

18:                                               ; preds = %_ZN17duckdb_libpgquery11core_yyfreeEPvS0_.exit
  tail call void @_ZN17duckdb_libpgquery5pfreeEPv(ptr noundef nonnull %17)
  br label %_ZN17duckdb_libpgquery11core_yyfreeEPvS0_.exit28

_ZN17duckdb_libpgquery11core_yyfreeEPvS0_.exit28: ; preds = %_ZN17duckdb_libpgquery11core_yyfreeEPvS0_.exit, %18
  %19 = getelementptr inbounds nuw i8, ptr %0, i64 72
  %20 = getelementptr inbounds nuw i8, ptr %0, i64 92
  store i32 0, ptr %20, align 4, !tbaa !95
  %21 = getelementptr inbounds nuw i8, ptr %0, i64 96
  store i32 0, ptr %21, align 8, !tbaa !96
  store ptr null, ptr %16, align 8, !tbaa !97
  %22 = getelementptr inbounds nuw i8, ptr %0, i64 8
  tail call void @llvm.memset.p0.i64(ptr noundef nonnull align 8 dereferenceable(40) %22, i8 0, i64 40, i1 false)
  tail call void @llvm.memset.p0.i64(ptr noundef nonnull align 8 dereferenceable(16) %19, i8 0, i64 16, i1 false)
  tail call void @_ZN17duckdb_libpgquery5pfreeEPv(ptr noundef nonnull %0)
  ret i32 0
}